target datalayout = "e-m:e-p270:32:32-p271:32:32-p272:64:64-i64:64-i128:128-f80:128-n8:16:32:64-S128"
target triple = "x86_64-pc-linux-gnu"

%struct._e_guid_t = type { i32, i16, i16, [8 x i8] }
%struct._dcerpc_info = type { ptr, i32, i64, i8, i8, i8, i32, i32, i32, i32, i32, i32, i32, i32, ptr, ptr, ptr, ptr, %struct.anon }
%struct.anon = type { i8, ptr, ptr, ptr, i8 }
%struct.property_guids = type { [10 x %struct._e_guid_t], [10 x i32], i32, i32 }

@hf_sysact_actpropsize = internal global i32 0, align 4

; Function Attrs: null_pointer_is_valid sspstrong uwtable
define internal i32 @dissect_dcom_Property_Size(ptr noundef %0, i32 noundef %1, ptr noundef %2, ptr noundef %3, ptr noundef %4, ptr noundef %5) #0 {
  %7 = alloca ptr, align 8
  %8 = alloca i32, align 4
  %9 = alloca ptr, align 8
  %10 = alloca ptr, align 8
  %11 = alloca ptr, align 8
  %12 = alloca ptr, align 8
  %13 = alloca ptr, align 8
  store ptr %0, ptr %7, align 8
  store i32 %1, ptr %8, align 4
  store ptr %2, ptr %9, align 8
  store ptr %3, ptr %10, align 8
  store ptr %4, ptr %11, align 8
  store ptr %5, ptr %12, align 8
  call void @llvm.lifetime.start.p0(i64 8, ptr %13) #5
  %14 = load ptr, ptr %11, align 8
  %15 = getelementptr inbounds nuw %struct._dcerpc_info, ptr %14, i32 0, i32 17
  %16 = load ptr, ptr %15, align 8
  store ptr %16, ptr %13, align 8
  %17 = load ptr, ptr %13, align 8
  %18 = getelementptr inbounds nuw %struct.property_guids, ptr %17, i32 0, i32 3
  %19 = load i32, ptr %18, align 4
  %20 = icmp ult i32 %19, 10
  br i1 %20, label %21, label %38

21:                                               ; preds = %6
  %22 = load ptr, ptr %7, align 8
  %23 = load i32, ptr %8, align 4
  %24 = load ptr, ptr %9, align 8
  %25 = load ptr, ptr %10, align 8
  %26 = load ptr, ptr %11, align 8
  %27 = load ptr, ptr %12, align 8
  %28 = load i32, ptr @hf_sysact_actpropsize, align 4
  %29 = load ptr, ptr %13, align 8
  %30 = getelementptr inbounds nuw %struct.property_guids, ptr %29, i32 0, i32 1
  %31 = load ptr, ptr %13, align 8
  %32 = getelementptr inbounds nuw %struct.property_guids, ptr %31, i32 0, i32 3
  %33 = load i32, ptr %32, align 4
  %34 = add i32 %33, 1
  store i32 %34, ptr %32, align 4
  %35 = zext i32 %33 to i64
  %36 = getelementptr [10 x i32], ptr %30, i64 0, i64 %35
  %37 = call i32 @dissect_ndr_uint32(ptr noundef %22, i32 noundef %23, ptr noundef %24, ptr noundef %25, ptr noundef %26, ptr noundef %27, i32 noundef %28, ptr noundef %36)
  store i32 %37, ptr %8, align 4
  br label %43

38:                                               ; preds = %6
  %39 = load ptr, ptr %7, align 8
  %40 = load i32, ptr %8, align 4
  call void @tvb_ensure_bytes_exist(ptr noundef %39, i32 noundef %40, i32 noundef 4)
  %41 = load i32, ptr %8, align 4
  %42 = add i32 %41, 4
  store i32 %42, ptr %8, align 4
  br label %43

43:                                               ; preds = %38, %21
  %44 = load i32, ptr %8, align 4
  call void @llvm.lifetime.end.p0(i64 8, ptr %13) #5
  ret i32 %44
}