; Function Attrs: null_pointer_is_valid sspstrong uwtable
define internal i32 @dissect_dcom_Property_Size(ptr noundef %0, i32 noundef %1, ptr noundef %2, ptr noundef %3, ptr noundef %4, ptr noundef %5) #0 {
  %7 = getelementptr inbounds nuw i8, ptr %4, i64 88
  %8 = load ptr, ptr %7, align 8
  %9 = getelementptr inbounds nuw i8, ptr %8, i64 204
  %10 = load i32, ptr %9, align 4
  %11 = icmp ult i32 %10, 10
  br i1 %11, label %12, label %19

12:                                               ; preds = %6
  %13 = load i32, ptr @hf_sysact_actpropsize, align 4
  %14 = getelementptr inbounds nuw i8, ptr %8, i64 160
  %15 = add nuw nsw i32 %10, 1
  store i32 %15, ptr %9, align 4
  %16 = zext nneg i32 %10 to i64
  %17 = getelementptr [10 x i32], ptr %14, i64 0, i64 %16
  %18 = tail call i32 @dissect_ndr_uint32(ptr noundef %0, i32 noundef %1, ptr noundef %2, ptr noundef %3, ptr noundef %4, ptr noundef %5, i32 noundef %13, ptr noundef %17)
  br label %21

19:                                               ; preds = %6
  tail call void @tvb_ensure_bytes_exist(ptr noundef %0, i32 noundef %1, i32 noundef 4)
  %20 = add i32 %1, 4
  br label %21

21:                                               ; preds = %19, %12
  %.0 = phi i32 [ %18, %12 ], [ %20, %19 ]
  ret i32 %.0
}